; Function Attrs: nounwind uwtable
define hidden void @lj_parse_keepcdata(ptr noundef readonly captures(none) %0, ptr noundef initializes((0, 8)) %1, ptr noundef %2) local_unnamed_addr #0 {
  %4 = getelementptr inbounds nuw i8, ptr %0, i64 8
  %5 = load ptr, ptr %4, align 8, !tbaa !4
  %6 = ptrtoint ptr %2 to i64
  %7 = or i64 %6, -1548112371908608
  store i64 %7, ptr %1, align 8, !tbaa !25
  %8 = load ptr, ptr %0, align 8, !tbaa !19
  %9 = load ptr, ptr %8, align 8, !tbaa !20
  %10 = tail call ptr @lj_tab_set(ptr noundef %5, ptr noundef %9, ptr noundef nonnull %1) #11
  store i64 -281474976710657, ptr %10, align 8, !tbaa !25
  ret void
}